(dp0
csympy.core.symbol
Symbol
p1
(S'c11'
p2
tp3
Rp4
(dp5
S'_assumptions'
p6
ccopy_reg
_reconstructor
p7
(csympy.core.assumptions
StdFactKB
p8
c__builtin__
dict
p9
(dp10
S'commutative'
p11
I01
stp12
Rp13
sbcsympy.core.mul
Mul
p14
(csympy.core.numbers
Rational
p15
(I-2
I9
tp16
Rp17
(dp18
bg1
(S'N'
p19
tp20
Rp21
(dp22
g6
g7
(g8
g9
(dp23
S'polar'
p24
Nsg11
I01
sS'antihermitian'
p25
NsS'nonpositive'
p26
NsS'positive'
p27
NsS'negative'
p28
NsS'nonnegative'
p29
NsS'algebraic'
p30
NsS'zero'
p31
NsS'complex'
p32
NsS'rational'
p33
NsS'infinite'
p34
NsS'hermitian'
p35
NsS'finite'
p36
NsS'irrational'
p37
Nstp38
Rp39
sbg1
(S"{F_{1/2}}'"
p40
tp41
Rp42
(dp43
g6
g7
(g8
g9
(dp44
S'real'
p45
Nsg24
Nsg37
Nsg25
Nsg26
Nsg30
Nsg31
Nsg34
NsS'integer'
p46
Nsg35
NsS'odd'
p47
NsS'imaginary'
p48
NsS'even'
p49
Nsg11
I01
sg27
Nsg28
Nsg29
Nsg32
Nsg33
Nsg36
Nstp50
Rp51
sbcsympy.core.power
Pow
p52
(g1
(S'F_{1/2}'
p53
tp54
Rp55
(dp56
g6
g7
(g8
g9
(dp57
g45
Nsg24
Nsg37
Nsg25
Nsg26
Nsg30
Nsg31
Nsg34
Nsg46
Nsg35
Nsg47
Nsg48
Nsg49
Nsg11
I01
sg27
Nsg28
Nsg29
Nsg32
Nsg33
Nsg36
Nstp58
Rp59
sbcsympy.core.numbers
NegativeOne
p60
(tRp61
(dp62
btp63
Rp64
(dp65
bg52
(g1
(S'T'
p66
tp67
Rp68
(dp69
g6
g7
(g8
g9
(dp70
g45
Nsg24
Nsg37
Nsg25
Nsg26
Nsg30
Nsg35
Nsg34
Nsg46
Nsg48
Nsg47
Nsg49
Nsg11
I01
sg31
Nsg27
Nsg28
Nsg29
Nsg32
Nsg33
Nsg36
Nstp71
Rp72
sbg61
tp73
Rp74
(dp75
bg52
(g1
(S'\\Xi_u'
p76
tp77
Rp78
(dp79
g6
g7
(g8
g9
(dp80
g45
Nsg24
Nsg37
Nsg25
Nsg26
Nsg30
Nsg35
Nsg34
Nsg46
Nsg48
Nsg47
Nsg49
Nsg11
I01
sg31
Nsg27
Nsg28
Nsg29
Nsg32
Nsg33
Nsg36
Nstp81
Rp82
sbcsympy.core.numbers
Integer
p83
(I2
tp84
Rp85
(dp86
btp87
Rp88
(dp89
btp90
Rp91
(dp92
bsg1
(S'c1111'
p93
tp94
Rp95
(dp96
g6
g7
(g8
g9
(dp97
g11
I01
stp98
Rp99
sbg14
(g15
(I-2
I27
tp100
Rp101
(dp102
bg21
g64
g52
(g68
g83
(I-3
tp103
Rp104
(dp105
btp106
Rp107
(dp108
bg52
(g78
g83
(I4
tp109
Rp110
(dp111
btp112
Rp113
(dp114
bg52
(g42
g61
tp115
Rp116
(dp117
bcsympy.core.add
Add
p118
(g14
(g83
(I-2
tp119
Rp120
(dp121
bg52
(g1
(S"{F_{1/2}}''"
p122
tp123
Rp124
(dp125
g6
g7
(g8
g9
(dp126
g45
Nsg24
Nsg37
Nsg25
Nsg26
Nsg30
Nsg31
Nsg34
Nsg46
Nsg35
Nsg47
Nsg48
Nsg49
Nsg11
I01
sg27
Nsg28
Nsg29
Nsg32
Nsg33
Nsg36
Nstp127
Rp128
sbg85
tp129
Rp130
(dp131
btp132
Rp133
(dp134
bg14
(g42
g1
(S"{F_{1/2}}'''"
p135
tp136
Rp137
(dp138
g6
g7
(g8
g9
(dp139
g24
Nsg11
I01
sg25
Nsg26
Nsg27
Nsg28
Nsg29
Nsg30
Nsg31
Nsg32
Nsg33
Nsg34
Nsg35
Nsg36
Nsg37
Nstp140
Rp141
sbtp142
Rp143
(dp144
btp145
Rp146
(dp147
btp148
Rp149
(dp150
bsg1
(S'c1144'
p151
tp152
Rp153
(dp154
g6
g7
(g8
g9
(dp155
g11
I01
stp156
Rp157
sbg14
(g15
(I1
I27
tp158
Rp159
(dp160
bg21
g64
g52
(g68
g120
tp161
Rp162
(dp163
bg88
g116
g118
(g14
(g1
(S'\\Xi_{s2}'
p164
tp165
Rp166
(dp167
g6
g7
(g8
g9
(dp168
g45
Nsg24
Nsg37
Nsg25
Nsg26
Nsg30
Nsg35
Nsg34
Nsg46
Nsg48
Nsg47
Nsg49
Nsg11
I01
sg31
Nsg27
Nsg28
Nsg29
Nsg32
Nsg33
Nsg36
Nstp169
Rp170
sbg42
g124
tp171
Rp172
(dp173
bg14
(g55
g1
(S'J'
p174
tp175
Rp176
(dp177
g6
g7
(g8
g9
(dp178
g45
Nsg24
Nsg37
Nsg25
Nsg26
Nsg30
Nsg31
Nsg34
Nsg46
Nsg35
Nsg47
Nsg48
Nsg49
Nsg11
I01
sg27
Nsg28
Nsg29
Nsg32
Nsg33
Nsg36
Nstp179
Rp180
sbg68
g124
tp181
Rp182
(dp183
bg14
(g85
g176
g68
g42
g118
(g14
(g61
g42
tp184
Rp185
(dp186
bg14
(g85
g1
(S'\\theta_0'
p187
tp188
Rp189
(dp190
g6
g7
(g8
g9
(dp191
g24
Nsg11
I01
sg25
Nsg26
Nsg27
Nsg28
Nsg29
Nsg30
Nsg31
Nsg32
Nsg33
Nsg34
Nsg35
Nsg36
Nsg37
Nstp192
Rp193
sbg124
tp194
Rp195
(dp196
btp197
Rp198
(dp199
btp200
Rp201
(dp202
btp203
Rp204
(dp205
btp206
Rp207
(dp208
bsg1
(S'c12'
p209
tp210
Rp211
(dp212
g6
g7
(g8
g9
(dp213
g11
I01
stp214
Rp215
sbg14
(g15
(I1
I9
tp216
Rp217
(dp218
bg21
g42
g64
g74
g88
tp219
Rp220
(dp221
bsg1
(S'c1456'
p222
tp223
Rp224
(dp225
g6
g7
(g8
g9
(dp226
g11
I01
stp227
Rp228
sbcsympy.core.numbers
Zero
p229
(tRp230
(dp231
bsg1
(S'c1112'
p232
tp233
Rp234
(dp235
g6
g7
(g8
g9
(dp236
g11
I01
stp237
Rp238
sbg14
(g159
g21
g64
g107
g113
g116
g146
tp239
Rp240
(dp241
bsg1
(S'c112'
p242
tp243
Rp244
(dp245
g6
g7
(g8
g9
(dp246
g11
I01
stp247
Rp248
sbg14
(g15
(I-1
I27
tp249
Rp250
(dp251
bg21
g124
g64
g162
g52
(g78
g83
(I3
tp252
Rp253
(dp254
btp255
Rp256
(dp257
btp258
Rp259
(dp260
bsg1
(S'c4444'
p261
tp262
Rp263
(dp264
g6
g7
(g8
g9
(dp265
g11
I01
stp266
Rp267
sbg118
(g14
(csympy.core.numbers
Half
p268
(tRp269
(dp270
bg21
g1
(S'\\Xi_{s4}'
p271
tp272
Rp273
(dp274
g6
g7
(g8
g9
(dp275
g45
Nsg24
Nsg37
Nsg25
Nsg26
Nsg30
Nsg35
Nsg34
Nsg46
Nsg48
Nsg47
Nsg49
Nsg11
I01
sg31
Nsg27
Nsg28
Nsg29
Nsg32
Nsg33
Nsg36
Nstp276
Rp277
sbtp278
Rp279
(dp280
bg14
(g15
(I1
I3
tp281
Rp282
(dp283
bg176
g21
g166
tp284
Rp285
(dp286
bg14
(g15
(I-1
I3
tp287
Rp288
(dp289
bg1
(S'F_{3/2}'
p290
tp291
Rp292
(dp293
g6
g7
(g8
g9
(dp294
g24
Nsg11
I01
sg25
Nsg26
Nsg27
Nsg28
Nsg29
Nsg30
Nsg31
Nsg32
Nsg33
Nsg34
Nsg35
Nsg36
Nsg37
Nstp295
Rp296
sbg1
(S'K'
p297
tp298
Rp299
(dp300
g6
g7
(g8
g9
(dp301
g24
Nsg11
I01
sg27
Nsg28
Nsg29
Nsg31
Nsg34
Nsg36
Nstp302
Rp303
sbg21
g68
g64
tp304
Rp305
(dp306
bg14
(g15
(I-1
I6
tp307
Rp308
(dp309
bg21
g42
g64
g74
g52
(g166
g85
tp310
Rp311
(dp312
btp313
Rp314
(dp315
bg14
(g15
(I1
I12
tp316
Rp317
(dp318
bg55
g21
g68
g52
(g176
g85
tp319
Rp320
(dp321
bg116
tp322
Rp323
(dp324
btp325
Rp326
(dp327
bsg1
(S'c456'
p328
tp329
Rp330
(dp331
g6
g7
(g8
g9
(dp332
g11
I01
stp333
Rp334
sbg230
sg1
(S'c1123'
p335
tp336
Rp337
(dp338
g6
g7
(g8
g9
(dp339
g11
I01
stp340
Rp341
sbg230
sg1
(S'c1155'
p342
tp343
Rp344
(dp345
g6
g7
(g8
g9
(dp346
g11
I01
stp347
Rp348
sbg14
(g15
(I1
I54
tp349
Rp350
(dp351
bg21
g64
g162
g88
g116
g118
(g14
(g61
g166
g42
g124
tp352
Rp353
(dp354
bg14
(g176
g68
g42
g198
tp355
Rp356
(dp357
bg14
(g85
g55
g176
g68
g124
tp358
Rp359
(dp360
btp361
Rp362
(dp363
btp364
Rp365
(dp366
bsg1
(S'c1122'
p367
tp368
Rp369
(dp370
g6
g7
(g8
g9
(dp371
g11
I01
stp372
Rp373
sbg14
(g250
g21
g64
g107
g113
g116
g146
tp374
Rp375
(dp376
bsg1
(S'c123'
p377
tp378
Rp379
(dp380
g6
g7
(g8
g9
(dp381
g11
I01
stp382
Rp383
sbg14
(g15
(I2
I27
tp384
Rp385
(dp386
bg21
g124
g64
g162
g256
tp387
Rp388
(dp389
bsg1
(S'c111'
p390
tp391
Rp392
(dp393
g6
g7
(g8
g9
(dp394
g11
I01
stp395
Rp396
sbg14
(g385
g21
g124
g64
g162
g256
tp397
Rp398
(dp399
bsg1
(S'c1266'
p400
tp401
Rp402
(dp403
g6
g7
(g8
g9
(dp404
g11
I01
stp405
Rp406
sbg14
(g350
g21
g64
g162
g88
g116
g118
(g14
(g85
g166
g42
g124
tp407
Rp408
(dp409
bg14
(g176
g68
g42
g198
tp410
Rp411
(dp412
bg14
(g61
g55
g176
g68
g124
tp413
Rp414
(dp415
btp416
Rp417
(dp418
btp419
Rp420
(dp421
bsg1
(S'c44'
p422
tp423
Rp424
(dp425
g6
g7
(g8
g9
(dp426
g11
I01
stp427
Rp428
sbg118
(g14
(g15
(I1
I6
tp429
Rp430
(dp431
bg21
g166
tp432
Rp433
(dp434
bg14
(g15
(I-1
I9
tp435
Rp436
(dp437
bg292
g176
g21
g68
g64
tp438
Rp439
(dp440
btp441
Rp442
(dp443
bsg1
(S'c1244'
p444
tp445
Rp446
(dp447
g6
g7
(g8
g9
(dp448
g11
I01
stp449
Rp450
sbg14
(g15
(I-1
I54
tp451
Rp452
(dp453
bg21
g64
g162
g88
g116
g204
tp454
Rp455
(dp456
bsg1
(S'c144'
p457
tp458
Rp459
(dp460
g6
g7
(g8
g9
(dp461
g11
I01
stp462
Rp463
sbg14
(g217
g21
g78
g118
(g176
g14
(g61
g166
g42
g64
g74
tp464
Rp465
(dp466
btp467
Rp468
(dp469
btp470
Rp471
(dp472
bsg1
(S'c155'
p473
tp474
Rp475
(dp476
g6
g7
(g8
g9
(dp477
g11
I01
stp478
Rp479
sbg14
(g15
(I1
I18
tp480
Rp481
(dp482
bg21
g78
g118
(g14
(g61
g176
tp483
Rp484
(dp485
bg14
(g166
g42
g64
g74
tp486
Rp487
(dp488
btp489
Rp490
(dp491
btp492
Rp493
(dp494
bsg1
(S'c4455'
p495
tp496
Rp497
(dp498
g6
g7
(g8
g9
(dp499
g11
I01
stp500
Rp501
sbg118
(g14
(g15
(I-1
I18
tp502
Rp503
(dp504
bg176
g21
g166
tp505
Rp506
(dp507
bg14
(g15
(I1
I36
tp508
Rp509
(dp510
bg55
g21
g68
g320
g116
tp511
Rp512
(dp513
bg14
(g509
g21
g42
g64
g74
g311
tp514
Rp515
(dp516
btp517
Rp518
(dp519
bs.